CCS PCM C Compiler, Version 4.057, 15268               09-Oct-21 18:47

               Filename: main.lst

               ROM used: 149 words (15%)
                         Largest free fragment is 875
               RAM used: 6 (9%) at main() level
                         7 (10%) worst case
               Stack:    1 locations

*
0000:  MOVLW  00
0001:  MOVWF  0A
0002:  GOTO   018
0003:  NOP
....................    #include<16F84A.h> 
.................... //////// Standard Header file for the PIC16F84A device //////////////// 
.................... #device PIC16F84A 
.................... #list 
....................  
....................    #use delay (clock=4MHz) 
0004:  MOVLW  13
0005:  MOVWF  04
0006:  MOVF   00,W
0007:  BTFSC  03.2
0008:  GOTO   017
0009:  MOVLW  01
000A:  MOVWF  0D
000B:  CLRF   0C
000C:  DECFSZ 0C,F
000D:  GOTO   00C
000E:  DECFSZ 0D,F
000F:  GOTO   00B
0010:  MOVLW  4A
0011:  MOVWF  0C
0012:  DECFSZ 0C,F
0013:  GOTO   012
0014:  GOTO   015
0015:  DECFSZ 00,F
0016:  GOTO   009
0017:  RETLW  00
....................    #fuses HS 
....................    void main() 
....................    { 
0018:  CLRF   04
0019:  MOVLW  1F
001A:  ANDWF  03,F
....................    while(true) 
....................    { 
....................    output_b(0x3F); 
001B:  BSF    03.5
001C:  CLRF   06
001D:  MOVLW  3F
001E:  BCF    03.5
001F:  MOVWF  06
....................    delay_ms(1000); 
0020:  MOVLW  04
0021:  MOVWF  12
0022:  MOVLW  FA
0023:  MOVWF  13
0024:  CALL   004
0025:  DECFSZ 12,F
0026:  GOTO   022
....................    output_b(0x06); 
0027:  BSF    03.5
0028:  CLRF   06
0029:  MOVLW  06
002A:  BCF    03.5
002B:  MOVWF  06
....................    delay_ms(1000); 
002C:  MOVLW  04
002D:  MOVWF  12
002E:  MOVLW  FA
002F:  MOVWF  13
0030:  CALL   004
0031:  DECFSZ 12,F
0032:  GOTO   02E
....................    output_b(0x5B); 
0033:  BSF    03.5
0034:  CLRF   06
0035:  MOVLW  5B
0036:  BCF    03.5
0037:  MOVWF  06
....................    delay_ms(1000); 
0038:  MOVLW  04
0039:  MOVWF  12
003A:  MOVLW  FA
003B:  MOVWF  13
003C:  CALL   004
003D:  DECFSZ 12,F
003E:  GOTO   03A
....................    output_b(0x4F); 
003F:  BSF    03.5
0040:  CLRF   06
0041:  MOVLW  4F
0042:  BCF    03.5
0043:  MOVWF  06
....................    delay_ms(1000); 
0044:  MOVLW  04
0045:  MOVWF  12
0046:  MOVLW  FA
0047:  MOVWF  13
0048:  CALL   004
0049:  DECFSZ 12,F
004A:  GOTO   046
....................    output_b(0x66); 
004B:  BSF    03.5
004C:  CLRF   06
004D:  MOVLW  66
004E:  BCF    03.5
004F:  MOVWF  06
....................    delay_ms(1000); 
0050:  MOVLW  04
0051:  MOVWF  12
0052:  MOVLW  FA
0053:  MOVWF  13
0054:  CALL   004
0055:  DECFSZ 12,F
0056:  GOTO   052
....................    output_b(0x6D); 
0057:  BSF    03.5
0058:  CLRF   06
0059:  MOVLW  6D
005A:  BCF    03.5
005B:  MOVWF  06
....................    delay_ms(1000); 
005C:  MOVLW  04
005D:  MOVWF  12
005E:  MOVLW  FA
005F:  MOVWF  13
0060:  CALL   004
0061:  DECFSZ 12,F
0062:  GOTO   05E
....................    output_b(0x7D); 
0063:  BSF    03.5
0064:  CLRF   06
0065:  MOVLW  7D
0066:  BCF    03.5
0067:  MOVWF  06
....................    delay_ms(1000); 
0068:  MOVLW  04
0069:  MOVWF  12
006A:  MOVLW  FA
006B:  MOVWF  13
006C:  CALL   004
006D:  DECFSZ 12,F
006E:  GOTO   06A
....................    output_b(0x07); 
006F:  BSF    03.5
0070:  CLRF   06
0071:  MOVLW  07
0072:  BCF    03.5
0073:  MOVWF  06
....................    delay_ms(1000); 
0074:  MOVLW  04
0075:  MOVWF  12
0076:  MOVLW  FA
0077:  MOVWF  13
0078:  CALL   004
0079:  DECFSZ 12,F
007A:  GOTO   076
....................    output_b(0x7F); 
007B:  BSF    03.5
007C:  CLRF   06
007D:  MOVLW  7F
007E:  BCF    03.5
007F:  MOVWF  06
....................    delay_ms(1000); 
0080:  MOVLW  04
0081:  MOVWF  12
0082:  MOVLW  FA
0083:  MOVWF  13
0084:  CALL   004
0085:  DECFSZ 12,F
0086:  GOTO   082
....................    output_b(0x6F); 
0087:  BSF    03.5
0088:  CLRF   06
0089:  MOVLW  6F
008A:  BCF    03.5
008B:  MOVWF  06
....................    delay_ms(1000); 
008C:  MOVLW  04
008D:  MOVWF  12
008E:  MOVLW  FA
008F:  MOVWF  13
0090:  CALL   004
0091:  DECFSZ 12,F
0092:  GOTO   08E
....................     
....................    } 
0093:  GOTO   01B
....................    } 
0094:  SLEEP

Configuration Fuses:
   Word  1: 3FF2   HS NOWDT PUT NOPROTECT
